target datalayout = "e-m:e-p270:32:32-p271:32:32-p272:64:64-i64:64-i128:128-f80:128-n8:16:32:64-S128"
target triple = "x86_64-pc-linux-gnu"

%struct.Sbl_Man_t_ = type { ptr, ptr, i32, i32, i32, i32, i32, i32, i32, i32, i32, i32, i32, i32, i32, i32, i32, i32, i32, i32, i32, i32, ptr, ptr, ptr, ptr, ptr, ptr, ptr, ptr, ptr, ptr, ptr, ptr, ptr, ptr, ptr, ptr, ptr, ptr, ptr, ptr, ptr, ptr, ptr, ptr, ptr, ptr, ptr, ptr, ptr, i64, i64, i64, i64, i64, i64, i64, i64, i64, i64 }
%struct.Vec_Int_t_ = type { i32, i32, ptr }

; Function Attrs: nounwind uwtable
define internal i32 @Vec_IntSize(ptr noundef %0) #0 {
  %2 = alloca ptr, align 8
  store ptr %0, ptr %2, align 8
  %3 = load ptr, ptr %2, align 8
  %4 = getelementptr inbounds %struct.Vec_Int_t_, ptr %3, i32 0, i32 1
  %5 = load i32, ptr %4, align 4
  ret i32 %5
}

; Function Attrs: nounwind uwtable
define internal i32 @Vec_IntEntry(ptr noundef %0, i32 noundef %1) #0 {
  %3 = alloca ptr, align 8
  %4 = alloca i32, align 4
  store ptr %0, ptr %3, align 8
  store i32 %1, ptr %4, align 4
  %5 = load ptr, ptr %3, align 8
  %6 = getelementptr inbounds %struct.Vec_Int_t_, ptr %5, i32 0, i32 2
  %7 = load ptr, ptr %6, align 8
  %8 = load i32, ptr %4, align 4
  %9 = sext i32 %8 to i64
  %10 = getelementptr inbounds i32, ptr %7, i64 %9
  %11 = load i32, ptr %10, align 4
  ret i32 %11
}

; Function Attrs: nounwind uwtable
define i32 @Sbl_ManCriticalFanin(ptr noundef %0, i32 noundef %1, ptr noundef %2) #0 {
  %4 = alloca i32, align 4
  %5 = alloca ptr, align 8
  %6 = alloca i32, align 4
  %7 = alloca ptr, align 8
  %8 = alloca i32, align 4
  %9 = alloca i32, align 4
  %10 = alloca i32, align 4
  store ptr %0, ptr %5, align 8
  store i32 %1, ptr %6, align 4
  store ptr %2, ptr %7, align 8
  %11 = load ptr, ptr %5, align 8
  %12 = getelementptr inbounds %struct.Sbl_Man_t_, ptr %11, i32 0, i32 29
  %13 = load ptr, ptr %12, align 8
  %14 = load i32, ptr %6, align 4
  %15 = call i32 @Vec_IntEntry(ptr noundef %13, i32 noundef %14)
  store i32 %15, ptr %10, align 4
  store i32 0, ptr %8, align 4
  br label %16

16:                                               ; preds = %39, %3
  %17 = load i32, ptr %8, align 4
  %18 = load ptr, ptr %7, align 8
  %19 = call i32 @Vec_IntSize(ptr noundef %18)
  %20 = icmp slt i32 %17, %19
  br i1 %20, label %21, label %25

21:                                               ; preds = %16
  %22 = load ptr, ptr %7, align 8
  %23 = load i32, ptr %8, align 4
  %24 = call i32 @Vec_IntEntry(ptr noundef %22, i32 noundef %23)
  store i32 %24, ptr %9, align 4
  br label %25

25:                                               ; preds = %21, %16
  %26 = phi i1 [ false, %16 ], [ true, %21 ]
  br i1 %26, label %27, label %42

27:                                               ; preds = %25
  %28 = load ptr, ptr %5, align 8
  %29 = getelementptr inbounds %struct.Sbl_Man_t_, ptr %28, i32 0, i32 29
  %30 = load ptr, ptr %29, align 8
  %31 = load i32, ptr %9, align 4
  %32 = call i32 @Vec_IntEntry(ptr noundef %30, i32 noundef %31)
  %33 = add nsw i32 %32, 1
  %34 = load i32, ptr %10, align 4
  %35 = icmp eq i32 %33, %34
  br i1 %35, label %36, label %38

36:                                               ; preds = %27
  %37 = load i32, ptr %9, align 4
  store i32 %37, ptr %4, align 4
  br label %43

38:                                               ; preds = %27
  br label %39

39:                                               ; preds = %38
  %40 = load i32, ptr %8, align 4
  %41 = add nsw i32 %40, 1
  store i32 %41, ptr %8, align 4
  br label %16, !llvm.loop !22

42:                                               ; preds = %25
  store i32 -1, ptr %4, align 4
  br label %43

43:                                               ; preds = %42, %36
  %44 = load i32, ptr %4, align 4
  ret i32 %44
}