; Function Attrs: nofree norecurse nosync nounwind memory(read, inaccessiblemem: none) uwtable
define i32 @Sbl_ManCriticalFanin(ptr noundef readonly captures(none) %0, i32 noundef %1, ptr noundef readonly captures(none) %2) local_unnamed_addr #4 {
  %4 = getelementptr inbounds nuw i8, ptr %0, i64 152
  %5 = load ptr, ptr %4, align 8
  %6 = getelementptr i8, ptr %5, i64 8
  %.val14 = load ptr, ptr %6, align 8
  %7 = sext i32 %1 to i64
  %8 = getelementptr inbounds i32, ptr %.val14, i64 %7
  %9 = load i32, ptr %8, align 4
  %10 = getelementptr i8, ptr %2, i64 4
  %.val = load i32, ptr %10, align 4
  %11 = icmp sgt i32 %.val, 0
  br i1 %11, label %.lr.ph, label %.critedge

.lr.ph:                                           ; preds = %3
  %12 = getelementptr i8, ptr %2, i64 8
  %.val13 = load ptr, ptr %12, align 8
  %wide.trip.count = zext nneg i32 %.val to i64
  br label %14

13:                                               ; preds = %14
  %indvars.iv.next = add nuw nsw i64 %indvars.iv, 1
  %exitcond.not = icmp eq i64 %indvars.iv.next, %wide.trip.count
  br i1 %exitcond.not, label %.critedge, label %14, !llvm.loop !24

14:                                               ; preds = %.lr.ph, %13
  %indvars.iv = phi i64 [ 0, %.lr.ph ], [ %indvars.iv.next, %13 ]
  %15 = getelementptr inbounds nuw i32, ptr %.val13, i64 %indvars.iv
  %16 = load i32, ptr %15, align 4
  %17 = sext i32 %16 to i64
  %18 = getelementptr inbounds i32, ptr %.val14, i64 %17
  %19 = load i32, ptr %18, align 4
  %20 = add nsw i32 %19, 1
  %21 = icmp eq i32 %20, %9
  br i1 %21, label %.critedge, label %13

.critedge:                                        ; preds = %14, %13, %3
  %.0 = phi i32 [ -1, %3 ], [ -1, %13 ], [ %16, %14 ]
  ret i32 %.0
}